target datalayout = "e-m:e-p270:32:32-p271:32:32-p272:64:64-i64:64-i128:128-f80:128-n8:16:32:64-S128"
target triple = "x86_64-pc-linux-gnu"

@sane_ctype = external constant [256 x i8], align 16

; Function Attrs: nounwind uwtable
define dso_local i32 @no_wildcard(ptr noundef %0) #0 {
  %2 = alloca ptr, align 8
  store ptr %0, ptr %2, align 8, !tbaa !13
  %3 = load ptr, ptr %2, align 8, !tbaa !13
  %4 = load ptr, ptr %2, align 8, !tbaa !13
  %5 = call i32 @simple_length(ptr noundef %4)
  %6 = sext i32 %5 to i64
  %7 = getelementptr inbounds i8, ptr %3, i64 %6
  %8 = load i8, ptr %7, align 1, !tbaa !15
  %9 = sext i8 %8 to i32
  %10 = icmp eq i32 %9, 0
  %11 = zext i1 %10 to i32
  ret i32 %11
}

; Function Attrs: nounwind uwtable
define dso_local i32 @simple_length(ptr noundef %0) #0 {
  %2 = alloca i32, align 4
  %3 = alloca ptr, align 8
  %4 = alloca i32, align 4
  %5 = alloca i8, align 1
  %6 = alloca i32, align 4
  store ptr %0, ptr %3, align 8, !tbaa !13
  call void @llvm.lifetime.start.p0(i64 4, ptr %4) #12
  store i32 -1, ptr %4, align 4, !tbaa !16
  br label %7

7:                                                ; preds = %29, %1
  call void @llvm.lifetime.start.p0(i64 1, ptr %5) #12
  %8 = load ptr, ptr %3, align 8, !tbaa !13
  %9 = getelementptr inbounds nuw i8, ptr %8, i32 1
  store ptr %9, ptr %3, align 8, !tbaa !13
  %10 = load i8, ptr %8, align 1, !tbaa !15
  store i8 %10, ptr %5, align 1, !tbaa !15
  %11 = load i32, ptr %4, align 4, !tbaa !16
  %12 = add nsw i32 %11, 1
  store i32 %12, ptr %4, align 4, !tbaa !16
  %13 = load i8, ptr %5, align 1, !tbaa !15
  %14 = zext i8 %13 to i32
  %15 = icmp eq i32 %14, 0
  br i1 %15, label %24, label %16

16:                                               ; preds = %7
  %17 = load i8, ptr %5, align 1, !tbaa !15
  %18 = zext i8 %17 to i64
  %19 = getelementptr inbounds nuw [256 x i8], ptr @sane_ctype, i64 0, i64 %18
  %20 = load i8, ptr %19, align 1, !tbaa !15
  %21 = zext i8 %20 to i32
  %22 = and i32 %21, 8
  %23 = icmp ne i32 %22, 0
  br i1 %23, label %24, label %26

24:                                               ; preds = %16, %7
  %25 = load i32, ptr %4, align 4, !tbaa !16
  store i32 %25, ptr %2, align 4
  store i32 1, ptr %6, align 4
  br label %27

26:                                               ; preds = %16
  store i32 0, ptr %6, align 4
  br label %27

27:                                               ; preds = %26, %24
  call void @llvm.lifetime.end.p0(i64 1, ptr %5) #12
  %28 = load i32, ptr %6, align 4
  switch i32 %28, label %30 [
    i32 0, label %29
  ]

29:                                               ; preds = %27
  br label %7

30:                                               ; preds = %27
  call void @llvm.lifetime.end.p0(i64 4, ptr %4) #12
  %31 = load i32, ptr %2, align 4
  ret i32 %31
}

; Function Attrs: nounwind uwtable
define dso_local void @parse_path_pattern(ptr noundef %0, ptr noundef %1, ptr noundef %2, ptr noundef %3) #0 {
  %5 = alloca ptr, align 8
  %6 = alloca ptr, align 8
  %7 = alloca ptr, align 8
  %8 = alloca ptr, align 8
  %9 = alloca ptr, align 8
  %10 = alloca i64, align 8
  %11 = alloca i64, align 8
  store ptr %0, ptr %5, align 8, !tbaa !101
  store ptr %1, ptr %6, align 8, !tbaa !103
  store ptr %2, ptr %7, align 8, !tbaa !103
  store ptr %3, ptr %8, align 8, !tbaa !103
  call void @llvm.lifetime.start.p0(i64 8, ptr %9) #12
  %12 = load ptr, ptr %5, align 8, !tbaa !101
  %13 = load ptr, ptr %12, align 8, !tbaa !13
  store ptr %13, ptr %9, align 8, !tbaa !13
  call void @llvm.lifetime.start.p0(i64 8, ptr %10) #12
  call void @llvm.lifetime.start.p0(i64 8, ptr %11) #12
  %14 = load ptr, ptr %7, align 8, !tbaa !103
  store i32 0, ptr %14, align 4, !tbaa !16
  %15 = load ptr, ptr %9, align 8, !tbaa !13
  %16 = load i8, ptr %15, align 1, !tbaa !15
  %17 = sext i8 %16 to i32
  %18 = icmp eq i32 %17, 33
  br i1 %18, label %19, label %25

19:                                               ; preds = %4
  %20 = load ptr, ptr %7, align 8, !tbaa !103
  %21 = load i32, ptr %20, align 4, !tbaa !16
  %22 = or i32 %21, 16
  store i32 %22, ptr %20, align 4, !tbaa !16
  %23 = load ptr, ptr %9, align 8, !tbaa !13
  %24 = getelementptr inbounds nuw i8, ptr %23, i32 1
  store ptr %24, ptr %9, align 8, !tbaa !13
  br label %25

25:                                               ; preds = %19, %4
  %26 = load ptr, ptr %9, align 8, !tbaa !13
  %27 = call i64 @strlen(ptr noundef %26) #13
  store i64 %27, ptr %11, align 8, !tbaa !19
  %28 = load i64, ptr %11, align 8, !tbaa !19
  %29 = icmp ne i64 %28, 0
  br i1 %29, label %30, label %44

30:                                               ; preds = %25
  %31 = load ptr, ptr %9, align 8, !tbaa !13
  %32 = load i64, ptr %11, align 8, !tbaa !19
  %33 = sub i64 %32, 1
  %34 = getelementptr inbounds nuw i8, ptr %31, i64 %33
  %35 = load i8, ptr %34, align 1, !tbaa !15
  %36 = sext i8 %35 to i32
  %37 = icmp eq i32 %36, 47
  br i1 %37, label %38, label %44

38:                                               ; preds = %30
  %39 = load i64, ptr %11, align 8, !tbaa !19
  %40 = add i64 %39, -1
  store i64 %40, ptr %11, align 8, !tbaa !19
  %41 = load ptr, ptr %7, align 8, !tbaa !103
  %42 = load i32, ptr %41, align 4, !tbaa !16
  %43 = or i32 %42, 8
  store i32 %43, ptr %41, align 4, !tbaa !16
  br label %44

44:                                               ; preds = %38, %30, %25
  store i64 0, ptr %10, align 8, !tbaa !19
  br label %45

45:                                               ; preds = %58, %44
  %46 = load i64, ptr %10, align 8, !tbaa !19
  %47 = load i64, ptr %11, align 8, !tbaa !19
  %48 = icmp ult i64 %46, %47
  br i1 %48, label %49, label %61

49:                                               ; preds = %45
  %50 = load ptr, ptr %9, align 8, !tbaa !13
  %51 = load i64, ptr %10, align 8, !tbaa !19
  %52 = getelementptr inbounds nuw i8, ptr %50, i64 %51
  %53 = load i8, ptr %52, align 1, !tbaa !15
  %54 = sext i8 %53 to i32
  %55 = icmp eq i32 %54, 47
  br i1 %55, label %56, label %57

56:                                               ; preds = %49
  br label %61

57:                                               ; preds = %49
  br label %58

58:                                               ; preds = %57
  %59 = load i64, ptr %10, align 8, !tbaa !19
  %60 = add i64 %59, 1
  store i64 %60, ptr %10, align 8, !tbaa !19
  br label %45, !llvm.loop !105

61:                                               ; preds = %56, %45
  %62 = load i64, ptr %10, align 8, !tbaa !19
  %63 = load i64, ptr %11, align 8, !tbaa !19
  %64 = icmp eq i64 %62, %63
  br i1 %64, label %65, label %69

65:                                               ; preds = %61
  %66 = load ptr, ptr %7, align 8, !tbaa !103
  %67 = load i32, ptr %66, align 4, !tbaa !16
  %68 = or i32 %67, 1
  store i32 %68, ptr %66, align 4, !tbaa !16
  br label %69

69:                                               ; preds = %65, %61
  %70 = load ptr, ptr %9, align 8, !tbaa !13
  %71 = call i32 @simple_length(ptr noundef %70)
  %72 = load ptr, ptr %8, align 8, !tbaa !103
  store i32 %71, ptr %72, align 4, !tbaa !16
  %73 = load ptr, ptr %8, align 8, !tbaa !103
  %74 = load i32, ptr %73, align 4, !tbaa !16
  %75 = sext i32 %74 to i64
  %76 = load i64, ptr %11, align 8, !tbaa !19
  %77 = icmp ugt i64 %75, %76
  br i1 %77, label %78, label %82

78:                                               ; preds = %69
  %79 = load i64, ptr %11, align 8, !tbaa !19
  %80 = trunc i64 %79 to i32
  %81 = load ptr, ptr %8, align 8, !tbaa !103
  store i32 %80, ptr %81, align 4, !tbaa !16
  br label %82

82:                                               ; preds = %78, %69
  %83 = load ptr, ptr %9, align 8, !tbaa !13
  %84 = load i8, ptr %83, align 1, !tbaa !15
  %85 = sext i8 %84 to i32
  %86 = icmp eq i32 %85, 42
  br i1 %86, label %87, label %96

87:                                               ; preds = %82
  %88 = load ptr, ptr %9, align 8, !tbaa !13
  %89 = getelementptr inbounds i8, ptr %88, i64 1
  %90 = call i32 @no_wildcard(ptr noundef %89)
  %91 = icmp ne i32 %90, 0
  br i1 %91, label %92, label %96

92:                                               ; preds = %87
  %93 = load ptr, ptr %7, align 8, !tbaa !103
  %94 = load i32, ptr %93, align 4, !tbaa !16
  %95 = or i32 %94, 4
  store i32 %95, ptr %93, align 4, !tbaa !16
  br label %96

96:                                               ; preds = %92, %87, %82
  %97 = load ptr, ptr %9, align 8, !tbaa !13
  %98 = load ptr, ptr %5, align 8, !tbaa !101
  store ptr %97, ptr %98, align 8, !tbaa !13
  %99 = load i64, ptr %11, align 8, !tbaa !19
  %100 = trunc i64 %99 to i32
  %101 = load ptr, ptr %6, align 8, !tbaa !103
  store i32 %100, ptr %101, align 4, !tbaa !16
  call void @llvm.lifetime.end.p0(i64 8, ptr %11) #12
  call void @llvm.lifetime.end.p0(i64 8, ptr %10) #12
  call void @llvm.lifetime.end.p0(i64 8, ptr %9) #12
  ret void
}