; Function Attrs: nofree nounwind memory(read, argmem: readwrite, inaccessiblemem: none) uwtable
define dso_local void @parse_path_pattern(ptr noundef captures(none) %0, ptr noundef writeonly captures(none) %1, ptr noundef captures(none) initializes((0, 4)) %2, ptr noundef writeonly captures(none) %3) local_unnamed_addr #9 {
  %5 = load ptr, ptr %0, align 8, !tbaa !102
  store i32 0, ptr %2, align 4, !tbaa !10
  %6 = load i8, ptr %5, align 1, !tbaa !4
  %7 = icmp eq i8 %6, 33
  br i1 %7, label %8, label %10

8:                                                ; preds = %4
  store i32 16, ptr %2, align 4, !tbaa !10
  %9 = getelementptr inbounds nuw i8, ptr %5, i64 1
  br label %10

10:                                               ; preds = %8, %4
  %11 = phi i32 [ 16, %8 ], [ 0, %4 ]
  %.032 = phi ptr [ %9, %8 ], [ %5, %4 ]
  %12 = tail call i64 @strlen(ptr noundef nonnull dereferenceable(1) %.032) #28
  %.not = icmp eq i64 %12, 0
  br i1 %.not, label %._crit_edge.thread, label %13

13:                                               ; preds = %10
  %14 = getelementptr i8, ptr %.032, i64 %12
  %15 = getelementptr i8, ptr %14, i64 -1
  %16 = load i8, ptr %15, align 1, !tbaa !4
  %17 = icmp eq i8 %16, 47
  br i1 %17, label %18, label %.lr.ph.preheader

18:                                               ; preds = %13
  %19 = add i64 %12, -1
  %20 = or disjoint i32 %11, 8
  store i32 %20, ptr %2, align 4, !tbaa !10
  %.not41 = icmp eq i64 %19, 0
  br i1 %.not41, label %._crit_edge, label %.lr.ph.preheader

.lr.ph.preheader:                                 ; preds = %13, %18
  %.049 = phi i64 [ %19, %18 ], [ %12, %13 ]
  %21 = phi i32 [ %20, %18 ], [ %11, %13 ]
  br label %.lr.ph

.lr.ph:                                           ; preds = %.lr.ph.preheader, %25
  %.03138 = phi i64 [ %26, %25 ], [ 0, %.lr.ph.preheader ]
  %22 = getelementptr inbounds nuw i8, ptr %.032, i64 %.03138
  %23 = load i8, ptr %22, align 1, !tbaa !4
  %24 = icmp eq i8 %23, 47
  br i1 %24, label %._crit_edge, label %25

25:                                               ; preds = %.lr.ph
  %26 = add nuw i64 %.03138, 1
  %exitcond.not = icmp eq i64 %26, %.049
  br i1 %exitcond.not, label %._crit_edge.thread, label %.lr.ph, !llvm.loop !103

._crit_edge:                                      ; preds = %.lr.ph, %18
  %.045 = phi i64 [ 0, %18 ], [ %.049, %.lr.ph ]
  %27 = phi i32 [ %20, %18 ], [ %21, %.lr.ph ]
  %.031.lcssa = phi i64 [ 0, %18 ], [ %.03138, %.lr.ph ]
  %28 = icmp eq i64 %.031.lcssa, %.045
  br i1 %28, label %._crit_edge.thread, label %31

._crit_edge.thread:                               ; preds = %25, %10, %._crit_edge
  %29 = phi i32 [ %27, %._crit_edge ], [ %11, %10 ], [ %21, %25 ]
  %.04553 = phi i64 [ %.045, %._crit_edge ], [ 0, %10 ], [ %.049, %25 ]
  %30 = or i32 %29, 1
  store i32 %30, ptr %2, align 4, !tbaa !10
  br label %31

31:                                               ; preds = %._crit_edge.thread, %._crit_edge
  %.04552 = phi i64 [ %.04553, %._crit_edge.thread ], [ %.045, %._crit_edge ]
  br label %32

32:                                               ; preds = %36, %31
  %.08.i = phi ptr [ %.032, %31 ], [ %37, %36 ]
  %.07.i = phi i32 [ -1, %31 ], [ %34, %36 ]
  %33 = load i8, ptr %.08.i, align 1, !tbaa !4
  %34 = add nsw i32 %.07.i, 1
  %35 = icmp eq i8 %33, 0
  br i1 %35, label %simple_length.exit, label %36

36:                                               ; preds = %32
  %37 = getelementptr inbounds nuw i8, ptr %.08.i, i64 1
  %38 = zext i8 %33 to i64
  %39 = getelementptr inbounds nuw [256 x i8], ptr @sane_ctype, i64 0, i64 %38
  %40 = load i8, ptr %39, align 1, !tbaa !4
  %41 = and i8 %40, 8
  %.not.i = icmp eq i8 %41, 0
  br i1 %.not.i, label %32, label %simple_length.exit

simple_length.exit:                               ; preds = %32, %36
  %42 = sext i32 %34 to i64
  %spec.select35 = tail call i64 @llvm.umin.i64(i64 %.04552, i64 %42)
  %spec.select = trunc i64 %spec.select35 to i32
  store i32 %spec.select, ptr %3, align 4, !tbaa !10
  %43 = load i8, ptr %.032, align 1, !tbaa !4
  %44 = icmp eq i8 %43, 42
  br i1 %44, label %45, label %63

45:                                               ; preds = %simple_length.exit
  %46 = getelementptr inbounds nuw i8, ptr %.032, i64 1
  br label %47

47:                                               ; preds = %51, %45
  %.08.i.i = phi ptr [ %46, %45 ], [ %52, %51 ]
  %.07.i.i = phi i32 [ -1, %45 ], [ %49, %51 ]
  %48 = load i8, ptr %.08.i.i, align 1, !tbaa !4
  %49 = add nsw i32 %.07.i.i, 1
  %50 = icmp eq i8 %48, 0
  br i1 %50, label %no_wildcard.exit, label %51

51:                                               ; preds = %47
  %52 = getelementptr inbounds nuw i8, ptr %.08.i.i, i64 1
  %53 = zext i8 %48 to i64
  %54 = getelementptr inbounds nuw [256 x i8], ptr @sane_ctype, i64 0, i64 %53
  %55 = load i8, ptr %54, align 1, !tbaa !4
  %56 = and i8 %55, 8
  %.not.i.i = icmp eq i8 %56, 0
  br i1 %.not.i.i, label %47, label %no_wildcard.exit

no_wildcard.exit:                                 ; preds = %47, %51
  %57 = sext i32 %49 to i64
  %58 = getelementptr inbounds i8, ptr %46, i64 %57
  %59 = load i8, ptr %58, align 1, !tbaa !4
  %.not36 = icmp eq i8 %59, 0
  br i1 %.not36, label %60, label %63

60:                                               ; preds = %no_wildcard.exit
  %61 = load i32, ptr %2, align 4, !tbaa !10
  %62 = or i32 %61, 4
  store i32 %62, ptr %2, align 4, !tbaa !10
  br label %63

63:                                               ; preds = %60, %no_wildcard.exit, %simple_length.exit
  %64 = trunc i64 %.04552 to i32
  store ptr %.032, ptr %0, align 8, !tbaa !102
  store i32 %64, ptr %1, align 4, !tbaa !10
  ret void
}